; Function Attrs: nounwind sspstrong uwtable
define dso_local i64 @rb_genrand_ulong_limited(i64 noundef %0) local_unnamed_addr #0 {
  %2 = load ptr, ptr @default_rand_key, align 8, !tbaa !7
  %3 = tail call ptr @rb_ractor_local_storage_ptr(ptr noundef %2) #23
  %4 = icmp eq ptr %3, null
  br i1 %4, label %5, label %default_rand.exit.i

5:                                                ; preds = %1
  %6 = tail call noalias nonnull dereferenceable(2520) ptr @ruby_xcalloc(i64 noundef 1, i64 noundef 2520) #24
  %7 = load ptr, ptr @default_rand_key, align 8, !tbaa !7
  tail call void @rb_ractor_local_storage_ptr_set(ptr noundef %7, ptr noundef nonnull %6) #23
  br label %default_rand.exit.i

default_rand.exit.i:                              ; preds = %5, %1
  %.0.i.i = phi ptr [ %6, %5 ], [ %3, %1 ]
  %8 = getelementptr inbounds nuw i8, ptr %.0.i.i, i64 2504
  %9 = load ptr, ptr %8, align 8, !tbaa !12
  %.not.i.i = icmp eq ptr %9, null
  br i1 %.not.i.i, label %10, label %default_mt.exit

10:                                               ; preds = %default_rand.exit.i
  %11 = tail call i64 @random_seed(i64 poison)
  %12 = tail call fastcc i64 @rand_init(ptr noundef nonnull @random_mt_if, ptr noundef nonnull %.0.i.i, i64 noundef %11)
  store i64 %11, ptr %.0.i.i, align 8, !tbaa !19
  br label %default_mt.exit

default_mt.exit:                                  ; preds = %default_rand.exit.i, %10
  %.not.i = icmp eq i64 %0, 0
  br i1 %.not.i, label %limited_rand.exit, label %13

13:                                               ; preds = %default_mt.exit
  %14 = lshr i64 %0, 1
  %15 = or i64 %14, %0
  %16 = lshr i64 %15, 2
  %17 = or i64 %16, %15
  %18 = lshr i64 %17, 4
  %19 = or i64 %18, %17
  %20 = lshr i64 %19, 8
  %21 = or i64 %20, %19
  %22 = lshr i64 %21, 16
  %23 = or i64 %22, %21
  %24 = lshr i64 %23, 32
  %25 = or i64 %24, %23
  %26 = icmp ugt i64 %0, 4294967295
  %27 = getelementptr inbounds nuw i8, ptr %.0.i.i, i64 8
  br i1 %26, label %.loopexit28.i, label %.preheader29.i

.loopexit28.i:                                    ; preds = %13, %.loopexit28.i.backedge
  %indvars.iv.i = phi i64 [ %indvars.iv.i.be, %.loopexit28.i.backedge ], [ 1, %13 ]
  %.02332.i = phi i64 [ %.02332.i.be, %.loopexit28.i.backedge ], [ 0, %13 ]
  %28 = shl nuw nsw i64 %indvars.iv.i, 5
  %29 = shl i64 4294967295, %28
  %30 = and i64 %29, %25
  %.not27.i = icmp eq i64 %30, 0
  br i1 %.not27.i, label %38, label %31

31:                                               ; preds = %.loopexit28.i
  %32 = tail call fastcc i32 @genrand_int32(ptr noundef nonnull %27)
  %33 = zext i32 %32 to i64
  %34 = shl nuw i64 %33, %28
  %35 = or i64 %34, %.02332.i
  %36 = and i64 %35, %25
  %37 = icmp ult i64 %0, %36
  br i1 %37, label %.loopexit28.i.backedge, label %38

38:                                               ; preds = %31, %.loopexit28.i
  %.1.i = phi i64 [ %36, %31 ], [ %.02332.i, %.loopexit28.i ]
  %indvars.iv.next.i = add nsw i64 %indvars.iv.i, -1
  %.not36.i = icmp eq i64 %indvars.iv.i, 0
  br i1 %.not36.i, label %limited_rand.exit, label %.loopexit28.i.backedge

.loopexit28.i.backedge:                           ; preds = %38, %31
  %indvars.iv.i.be = phi i64 [ %indvars.iv.next.i, %38 ], [ 1, %31 ]
  %.02332.i.be = phi i64 [ %.1.i, %38 ], [ 0, %31 ]
  br label %.loopexit28.i, !llvm.loop !29

.preheader29.i:                                   ; preds = %13, %.preheader29.i
  %39 = tail call fastcc i32 @genrand_int32(ptr noundef nonnull %27)
  %40 = zext i32 %39 to i64
  %41 = and i64 %25, %40
  %42 = icmp samesign ult i64 %0, %41
  br i1 %42, label %.preheader29.i, label %limited_rand.exit, !llvm.loop !30

limited_rand.exit:                                ; preds = %.preheader29.i, %38, %default_mt.exit
  %.022.i = phi i64 [ 0, %default_mt.exit ], [ %.1.i, %38 ], [ %41, %.preheader29.i ]
  ret i64 %.022.i
}